target datalayout = "e-m:e-p270:32:32-p271:32:32-p272:64:64-i64:64-i128:128-f80:128-n8:16:32:64-S128"
target triple = "x86_64-pc-linux-gnu"

%struct.jpeg_compress_struct = type { ptr, ptr, ptr, ptr, i32, i32, ptr, i32, i32, i32, i32, double, i32, i32, i32, ptr, [4 x ptr], [4 x ptr], [4 x ptr], [16 x i8], [16 x i8], [16 x i8], i32, ptr, i32, i32, i32, i32, i32, i32, i32, i32, i32, i8, i8, i8, i16, i16, i32, i32, i32, i32, i32, i32, i32, [4 x ptr], i32, i32, i32, [10 x i32], i32, i32, i32, i32, ptr, ptr, ptr, ptr, ptr, ptr, ptr, ptr, ptr, ptr, i32 }
%struct.ppm_source_struct = type { %struct.cjpeg_source_struct, ptr, ptr, i64, ptr, i32 }
%struct.cjpeg_source_struct = type { ptr, ptr, ptr, ptr, ptr, ptr, ptr, i32, i32 }

; Function Attrs: alwaysinline nounwind uwtable
define internal void @rgb_to_cmyk(i32 noundef %0, i8 noundef zeroext %1, i8 noundef zeroext %2, i8 noundef zeroext %3, ptr noundef %4, ptr noundef %5, ptr noundef %6, ptr noundef %7) #4 {
  %9 = alloca i32, align 4
  %10 = alloca i8, align 1
  %11 = alloca i8, align 1
  %12 = alloca i8, align 1
  %13 = alloca ptr, align 8
  %14 = alloca ptr, align 8
  %15 = alloca ptr, align 8
  %16 = alloca ptr, align 8
  %17 = alloca double, align 8
  %18 = alloca double, align 8
  %19 = alloca double, align 8
  %20 = alloca double, align 8
  store i32 %0, ptr %9, align 4, !tbaa !49
  store i8 %1, ptr %10, align 1, !tbaa !32
  store i8 %2, ptr %11, align 1, !tbaa !32
  store i8 %3, ptr %12, align 1, !tbaa !32
  store ptr %4, ptr %13, align 8, !tbaa !73
  store ptr %5, ptr %14, align 8, !tbaa !73
  store ptr %6, ptr %15, align 8, !tbaa !73
  store ptr %7, ptr %16, align 8, !tbaa !73
  call void @llvm.lifetime.start.p0(i64 8, ptr %17) #6
  %21 = load i8, ptr %10, align 1, !tbaa !32
  %22 = uitofp i8 %21 to double
  %23 = load i32, ptr %9, align 4, !tbaa !49
  %24 = sitofp i32 %23 to double
  %25 = fdiv double %22, %24
  %26 = fsub double 1.000000e+00, %25
  store double %26, ptr %17, align 8, !tbaa !106
  call void @llvm.lifetime.start.p0(i64 8, ptr %18) #6
  %27 = load i8, ptr %11, align 1, !tbaa !32
  %28 = uitofp i8 %27 to double
  %29 = load i32, ptr %9, align 4, !tbaa !49
  %30 = sitofp i32 %29 to double
  %31 = fdiv double %28, %30
  %32 = fsub double 1.000000e+00, %31
  store double %32, ptr %18, align 8, !tbaa !106
  call void @llvm.lifetime.start.p0(i64 8, ptr %19) #6
  %33 = load i8, ptr %12, align 1, !tbaa !32
  %34 = uitofp i8 %33 to double
  %35 = load i32, ptr %9, align 4, !tbaa !49
  %36 = sitofp i32 %35 to double
  %37 = fdiv double %34, %36
  %38 = fsub double 1.000000e+00, %37
  store double %38, ptr %19, align 8, !tbaa !106
  call void @llvm.lifetime.start.p0(i64 8, ptr %20) #6
  %39 = load double, ptr %17, align 8, !tbaa !106
  %40 = load double, ptr %18, align 8, !tbaa !106
  %41 = fcmp olt double %39, %40
  br i1 %41, label %42, label %44

42:                                               ; preds = %8
  %43 = load double, ptr %17, align 8, !tbaa !106
  br label %46

44:                                               ; preds = %8
  %45 = load double, ptr %18, align 8, !tbaa !106
  br label %46

46:                                               ; preds = %44, %42
  %47 = phi double [ %43, %42 ], [ %45, %44 ]
  %48 = load double, ptr %19, align 8, !tbaa !106
  %49 = fcmp olt double %47, %48
  br i1 %49, label %50, label %60

50:                                               ; preds = %46
  %51 = load double, ptr %17, align 8, !tbaa !106
  %52 = load double, ptr %18, align 8, !tbaa !106
  %53 = fcmp olt double %51, %52
  br i1 %53, label %54, label %56

54:                                               ; preds = %50
  %55 = load double, ptr %17, align 8, !tbaa !106
  br label %58

56:                                               ; preds = %50
  %57 = load double, ptr %18, align 8, !tbaa !106
  br label %58

58:                                               ; preds = %56, %54
  %59 = phi double [ %55, %54 ], [ %57, %56 ]
  br label %62

60:                                               ; preds = %46
  %61 = load double, ptr %19, align 8, !tbaa !106
  br label %62

62:                                               ; preds = %60, %58
  %63 = phi double [ %59, %58 ], [ %61, %60 ]
  store double %63, ptr %20, align 8, !tbaa !106
  %64 = load double, ptr %20, align 8, !tbaa !106
  %65 = fcmp oeq double %64, 1.000000e+00
  br i1 %65, label %66, label %67

66:                                               ; preds = %62
  store double 0.000000e+00, ptr %19, align 8, !tbaa !106
  store double 0.000000e+00, ptr %18, align 8, !tbaa !106
  store double 0.000000e+00, ptr %17, align 8, !tbaa !106
  br label %86

67:                                               ; preds = %62
  %68 = load double, ptr %17, align 8, !tbaa !106
  %69 = load double, ptr %20, align 8, !tbaa !106
  %70 = fsub double %68, %69
  %71 = load double, ptr %20, align 8, !tbaa !106
  %72 = fsub double 1.000000e+00, %71
  %73 = fdiv double %70, %72
  store double %73, ptr %17, align 8, !tbaa !106
  %74 = load double, ptr %18, align 8, !tbaa !106
  %75 = load double, ptr %20, align 8, !tbaa !106
  %76 = fsub double %74, %75
  %77 = load double, ptr %20, align 8, !tbaa !106
  %78 = fsub double 1.000000e+00, %77
  %79 = fdiv double %76, %78
  store double %79, ptr %18, align 8, !tbaa !106
  %80 = load double, ptr %19, align 8, !tbaa !106
  %81 = load double, ptr %20, align 8, !tbaa !106
  %82 = fsub double %80, %81
  %83 = load double, ptr %20, align 8, !tbaa !106
  %84 = fsub double 1.000000e+00, %83
  %85 = fdiv double %82, %84
  store double %85, ptr %19, align 8, !tbaa !106
  br label %86

86:                                               ; preds = %67, %66
  %87 = load i32, ptr %9, align 4, !tbaa !49
  %88 = sitofp i32 %87 to double
  %89 = load double, ptr %17, align 8, !tbaa !106
  %90 = load i32, ptr %9, align 4, !tbaa !49
  %91 = sitofp i32 %90 to double
  %92 = fneg double %89
  %93 = call double @llvm.fmuladd.f64(double %92, double %91, double %88)
  %94 = fadd double %93, 5.000000e-01
  %95 = fptoui double %94 to i8
  %96 = load ptr, ptr %13, align 8, !tbaa !73
  store i8 %95, ptr %96, align 1, !tbaa !32
  %97 = load i32, ptr %9, align 4, !tbaa !49
  %98 = sitofp i32 %97 to double
  %99 = load double, ptr %18, align 8, !tbaa !106
  %100 = load i32, ptr %9, align 4, !tbaa !49
  %101 = sitofp i32 %100 to double
  %102 = fneg double %99
  %103 = call double @llvm.fmuladd.f64(double %102, double %101, double %98)
  %104 = fadd double %103, 5.000000e-01
  %105 = fptoui double %104 to i8
  %106 = load ptr, ptr %14, align 8, !tbaa !73
  store i8 %105, ptr %106, align 1, !tbaa !32
  %107 = load i32, ptr %9, align 4, !tbaa !49
  %108 = sitofp i32 %107 to double
  %109 = load double, ptr %19, align 8, !tbaa !106
  %110 = load i32, ptr %9, align 4, !tbaa !49
  %111 = sitofp i32 %110 to double
  %112 = fneg double %109
  %113 = call double @llvm.fmuladd.f64(double %112, double %111, double %108)
  %114 = fadd double %113, 5.000000e-01
  %115 = fptoui double %114 to i8
  %116 = load ptr, ptr %15, align 8, !tbaa !73
  store i8 %115, ptr %116, align 1, !tbaa !32
  %117 = load i32, ptr %9, align 4, !tbaa !49
  %118 = sitofp i32 %117 to double
  %119 = load double, ptr %20, align 8, !tbaa !106
  %120 = load i32, ptr %9, align 4, !tbaa !49
  %121 = sitofp i32 %120 to double
  %122 = fneg double %119
  %123 = call double @llvm.fmuladd.f64(double %122, double %121, double %118)
  %124 = fadd double %123, 5.000000e-01
  %125 = fptoui double %124 to i8
  %126 = load ptr, ptr %16, align 8, !tbaa !73
  store i8 %125, ptr %126, align 1, !tbaa !32
  call void @llvm.lifetime.end.p0(i64 8, ptr %20) #6
  call void @llvm.lifetime.end.p0(i64 8, ptr %19) #6
  call void @llvm.lifetime.end.p0(i64 8, ptr %18) #6
  call void @llvm.lifetime.end.p0(i64 8, ptr %17) #6
  ret void
}

; Function Attrs: nounwind uwtable
define internal i32 @get_text_rgb_cmyk_row(ptr noundef %0, ptr noundef %1) #0 {
  %3 = alloca ptr, align 8
  %4 = alloca ptr, align 8
  %5 = alloca ptr, align 8
  %6 = alloca ptr, align 8
  %7 = alloca ptr, align 8
  %8 = alloca ptr, align 8
  %9 = alloca i32, align 4
  %10 = alloca i32, align 4
  %11 = alloca i8, align 1
  %12 = alloca i8, align 1
  %13 = alloca i8, align 1
  %14 = alloca i8, align 1
  %15 = alloca i8, align 1
  %16 = alloca i8, align 1
  store ptr %0, ptr %3, align 8, !tbaa !4
  store ptr %1, ptr %4, align 8, !tbaa !46
  call void @llvm.lifetime.start.p0(i64 8, ptr %5) #6
  %17 = load ptr, ptr %4, align 8, !tbaa !46
  store ptr %17, ptr %5, align 8, !tbaa !37
  call void @llvm.lifetime.start.p0(i64 8, ptr %6) #6
  %18 = load ptr, ptr %5, align 8, !tbaa !37
  %19 = getelementptr inbounds nuw %struct.ppm_source_struct, ptr %18, i32 0, i32 0
  %20 = getelementptr inbounds nuw %struct.cjpeg_source_struct, ptr %19, i32 0, i32 3
  %21 = load ptr, ptr %20, align 8, !tbaa !48
  store ptr %21, ptr %6, align 8, !tbaa !70
  call void @llvm.lifetime.start.p0(i64 8, ptr %7) #6
  call void @llvm.lifetime.start.p0(i64 8, ptr %8) #6
  %22 = load ptr, ptr %5, align 8, !tbaa !37
  %23 = getelementptr inbounds nuw %struct.ppm_source_struct, ptr %22, i32 0, i32 4
  %24 = load ptr, ptr %23, align 8, !tbaa !66
  store ptr %24, ptr %8, align 8, !tbaa !73
  call void @llvm.lifetime.start.p0(i64 4, ptr %9) #6
  call void @llvm.lifetime.start.p0(i64 4, ptr %10) #6
  %25 = load ptr, ptr %5, align 8, !tbaa !37
  %26 = getelementptr inbounds nuw %struct.ppm_source_struct, ptr %25, i32 0, i32 5
  %27 = load i32, ptr %26, align 8, !tbaa !53
  store i32 %27, ptr %10, align 4, !tbaa !49
  %28 = load ptr, ptr %5, align 8, !tbaa !37
  %29 = getelementptr inbounds nuw %struct.ppm_source_struct, ptr %28, i32 0, i32 0
  %30 = getelementptr inbounds nuw %struct.cjpeg_source_struct, ptr %29, i32 0, i32 4
  %31 = load ptr, ptr %30, align 8, !tbaa !63
  %32 = getelementptr inbounds ptr, ptr %31, i64 0
  %33 = load ptr, ptr %32, align 8, !tbaa !73
  store ptr %33, ptr %7, align 8, !tbaa !73
  %34 = load i32, ptr %10, align 4, !tbaa !49
  %35 = load ptr, ptr %3, align 8, !tbaa !4
  %36 = getelementptr inbounds nuw %struct.jpeg_compress_struct, ptr %35, i32 0, i32 12
  %37 = load i32, ptr %36, align 8, !tbaa !9
  %38 = shl i32 1, %37
  %39 = sub i32 %38, 1
  %40 = icmp eq i32 %34, %39
  br i1 %40, label %41, label %81

41:                                               ; preds = %2
  %42 = load ptr, ptr %3, align 8, !tbaa !4
  %43 = getelementptr inbounds nuw %struct.jpeg_compress_struct, ptr %42, i32 0, i32 7
  %44 = load i32, ptr %43, align 8, !tbaa !51
  store i32 %44, ptr %9, align 4, !tbaa !49
  br label %45

45:                                               ; preds = %77, %41
  %46 = load i32, ptr %9, align 4, !tbaa !49
  %47 = icmp ugt i32 %46, 0
  br i1 %47, label %48, label %80

48:                                               ; preds = %45
  call void @llvm.lifetime.start.p0(i64 1, ptr %11) #6
  %49 = load ptr, ptr %3, align 8, !tbaa !4
  %50 = load ptr, ptr %6, align 8, !tbaa !70
  %51 = load i32, ptr %10, align 4, !tbaa !49
  %52 = call i32 @read_pbm_integer(ptr noundef %49, ptr noundef %50, i32 noundef %51)
  %53 = trunc i32 %52 to i8
  store i8 %53, ptr %11, align 1, !tbaa !32
  call void @llvm.lifetime.start.p0(i64 1, ptr %12) #6
  %54 = load ptr, ptr %3, align 8, !tbaa !4
  %55 = load ptr, ptr %6, align 8, !tbaa !70
  %56 = load i32, ptr %10, align 4, !tbaa !49
  %57 = call i32 @read_pbm_integer(ptr noundef %54, ptr noundef %55, i32 noundef %56)
  %58 = trunc i32 %57 to i8
  store i8 %58, ptr %12, align 1, !tbaa !32
  call void @llvm.lifetime.start.p0(i64 1, ptr %13) #6
  %59 = load ptr, ptr %3, align 8, !tbaa !4
  %60 = load ptr, ptr %6, align 8, !tbaa !70
  %61 = load i32, ptr %10, align 4, !tbaa !49
  %62 = call i32 @read_pbm_integer(ptr noundef %59, ptr noundef %60, i32 noundef %61)
  %63 = trunc i32 %62 to i8
  store i8 %63, ptr %13, align 1, !tbaa !32
  %64 = load i32, ptr %10, align 4, !tbaa !49
  %65 = load i8, ptr %11, align 1, !tbaa !32
  %66 = load i8, ptr %12, align 1, !tbaa !32
  %67 = load i8, ptr %13, align 1, !tbaa !32
  %68 = load ptr, ptr %7, align 8, !tbaa !73
  %69 = load ptr, ptr %7, align 8, !tbaa !73
  %70 = getelementptr inbounds i8, ptr %69, i64 1
  %71 = load ptr, ptr %7, align 8, !tbaa !73
  %72 = getelementptr inbounds i8, ptr %71, i64 2
  %73 = load ptr, ptr %7, align 8, !tbaa !73
  %74 = getelementptr inbounds i8, ptr %73, i64 3
  call void @rgb_to_cmyk(i32 noundef %64, i8 noundef zeroext %65, i8 noundef zeroext %66, i8 noundef zeroext %67, ptr noundef %68, ptr noundef %70, ptr noundef %72, ptr noundef %74)
  %75 = load ptr, ptr %7, align 8, !tbaa !73
  %76 = getelementptr inbounds i8, ptr %75, i64 4
  store ptr %76, ptr %7, align 8, !tbaa !73
  call void @llvm.lifetime.end.p0(i64 1, ptr %13) #6
  call void @llvm.lifetime.end.p0(i64 1, ptr %12) #6
  call void @llvm.lifetime.end.p0(i64 1, ptr %11) #6
  br label %77

77:                                               ; preds = %48
  %78 = load i32, ptr %9, align 4, !tbaa !49
  %79 = add i32 %78, -1
  store i32 %79, ptr %9, align 4, !tbaa !49
  br label %45, !llvm.loop !85

80:                                               ; preds = %45
  br label %130

81:                                               ; preds = %2
  %82 = load ptr, ptr %3, align 8, !tbaa !4
  %83 = getelementptr inbounds nuw %struct.jpeg_compress_struct, ptr %82, i32 0, i32 7
  %84 = load i32, ptr %83, align 8, !tbaa !51
  store i32 %84, ptr %9, align 4, !tbaa !49
  br label %85

85:                                               ; preds = %126, %81
  %86 = load i32, ptr %9, align 4, !tbaa !49
  %87 = icmp ugt i32 %86, 0
  br i1 %87, label %88, label %129

88:                                               ; preds = %85
  call void @llvm.lifetime.start.p0(i64 1, ptr %14) #6
  %89 = load ptr, ptr %8, align 8, !tbaa !73
  %90 = load ptr, ptr %3, align 8, !tbaa !4
  %91 = load ptr, ptr %6, align 8, !tbaa !70
  %92 = load i32, ptr %10, align 4, !tbaa !49
  %93 = call i32 @read_pbm_integer(ptr noundef %90, ptr noundef %91, i32 noundef %92)
  %94 = zext i32 %93 to i64
  %95 = getelementptr inbounds nuw i8, ptr %89, i64 %94
  %96 = load i8, ptr %95, align 1, !tbaa !32
  store i8 %96, ptr %14, align 1, !tbaa !32
  call void @llvm.lifetime.start.p0(i64 1, ptr %15) #6
  %97 = load ptr, ptr %8, align 8, !tbaa !73
  %98 = load ptr, ptr %3, align 8, !tbaa !4
  %99 = load ptr, ptr %6, align 8, !tbaa !70
  %100 = load i32, ptr %10, align 4, !tbaa !49
  %101 = call i32 @read_pbm_integer(ptr noundef %98, ptr noundef %99, i32 noundef %100)
  %102 = zext i32 %101 to i64
  %103 = getelementptr inbounds nuw i8, ptr %97, i64 %102
  %104 = load i8, ptr %103, align 1, !tbaa !32
  store i8 %104, ptr %15, align 1, !tbaa !32
  call void @llvm.lifetime.start.p0(i64 1, ptr %16) #6
  %105 = load ptr, ptr %8, align 8, !tbaa !73
  %106 = load ptr, ptr %3, align 8, !tbaa !4
  %107 = load ptr, ptr %6, align 8, !tbaa !70
  %108 = load i32, ptr %10, align 4, !tbaa !49
  %109 = call i32 @read_pbm_integer(ptr noundef %106, ptr noundef %107, i32 noundef %108)
  %110 = zext i32 %109 to i64
  %111 = getelementptr inbounds nuw i8, ptr %105, i64 %110
  %112 = load i8, ptr %111, align 1, !tbaa !32
  store i8 %112, ptr %16, align 1, !tbaa !32
  %113 = load i32, ptr %10, align 4, !tbaa !49
  %114 = load i8, ptr %14, align 1, !tbaa !32
  %115 = load i8, ptr %15, align 1, !tbaa !32
  %116 = load i8, ptr %16, align 1, !tbaa !32
  %117 = load ptr, ptr %7, align 8, !tbaa !73
  %118 = load ptr, ptr %7, align 8, !tbaa !73
  %119 = getelementptr inbounds i8, ptr %118, i64 1
  %120 = load ptr, ptr %7, align 8, !tbaa !73
  %121 = getelementptr inbounds i8, ptr %120, i64 2
  %122 = load ptr, ptr %7, align 8, !tbaa !73
  %123 = getelementptr inbounds i8, ptr %122, i64 3
  call void @rgb_to_cmyk(i32 noundef %113, i8 noundef zeroext %114, i8 noundef zeroext %115, i8 noundef zeroext %116, ptr noundef %117, ptr noundef %119, ptr noundef %121, ptr noundef %123)
  %124 = load ptr, ptr %7, align 8, !tbaa !73
  %125 = getelementptr inbounds i8, ptr %124, i64 4
  store ptr %125, ptr %7, align 8, !tbaa !73
  call void @llvm.lifetime.end.p0(i64 1, ptr %16) #6
  call void @llvm.lifetime.end.p0(i64 1, ptr %15) #6
  call void @llvm.lifetime.end.p0(i64 1, ptr %14) #6
  br label %126

126:                                              ; preds = %88
  %127 = load i32, ptr %9, align 4, !tbaa !49
  %128 = add i32 %127, -1
  store i32 %128, ptr %9, align 4, !tbaa !49
  br label %85, !llvm.loop !86

129:                                              ; preds = %85
  br label %130

130:                                              ; preds = %129, %80
  call void @llvm.lifetime.end.p0(i64 4, ptr %10) #6
  call void @llvm.lifetime.end.p0(i64 4, ptr %9) #6
  call void @llvm.lifetime.end.p0(i64 8, ptr %8) #6
  call void @llvm.lifetime.end.p0(i64 8, ptr %7) #6
  call void @llvm.lifetime.end.p0(i64 8, ptr %6) #6
  call void @llvm.lifetime.end.p0(i64 8, ptr %5) #6
  ret i32 1
}