; Function Attrs: nounwind uwtable
define internal noundef i32 @get_text_rgb_cmyk_row(ptr noundef %0, ptr noundef readonly captures(none) %1) #0 {
  %3 = getelementptr inbounds nuw i8, ptr %1, i64 24
  %4 = load ptr, ptr %3, align 8, !tbaa !43
  %5 = getelementptr inbounds nuw i8, ptr %1, i64 88
  %6 = load ptr, ptr %5, align 8, !tbaa !59
  %7 = getelementptr inbounds nuw i8, ptr %1, i64 96
  %8 = load i32, ptr %7, align 8, !tbaa !47
  %9 = getelementptr inbounds nuw i8, ptr %1, i64 32
  %10 = load ptr, ptr %9, align 8, !tbaa !57
  %11 = load ptr, ptr %10, align 8, !tbaa !63
  %12 = getelementptr inbounds nuw i8, ptr %0, i64 72
  %13 = load i32, ptr %12, align 8, !tbaa !4
  %notmask = shl nsw i32 -1, %13
  %14 = xor i32 %notmask, %8
  %15 = icmp eq i32 %14, -1
  %16 = getelementptr inbounds nuw i8, ptr %0, i64 48
  %17 = load i32, ptr %16, align 8, !tbaa !45
  %.not5565 = icmp eq i32 %17, 0
  br i1 %15, label %18, label %69

18:                                               ; preds = %2
  br i1 %.not5565, label %.loopexit, label %.lr.ph68

.lr.ph68:                                         ; preds = %18
  %19 = sitofp i32 %8 to double
  br label %20

20:                                               ; preds = %.lr.ph68, %rgb_to_cmyk.exit
  %.067 = phi ptr [ %11, %.lr.ph68 ], [ %67, %rgb_to_cmyk.exit ]
  %.05166 = phi i32 [ %17, %.lr.ph68 ], [ %68, %rgb_to_cmyk.exit ]
  %21 = tail call fastcc i32 @read_pbm_integer(ptr noundef %0, ptr noundef %4, i32 noundef %8)
  %22 = trunc i32 %21 to i8
  %23 = tail call fastcc i32 @read_pbm_integer(ptr noundef %0, ptr noundef %4, i32 noundef %8)
  %24 = trunc i32 %23 to i8
  %25 = tail call fastcc i32 @read_pbm_integer(ptr noundef %0, ptr noundef %4, i32 noundef %8)
  %26 = trunc i32 %25 to i8
  %27 = getelementptr inbounds nuw i8, ptr %.067, i64 1
  %28 = getelementptr inbounds nuw i8, ptr %.067, i64 2
  %29 = getelementptr inbounds nuw i8, ptr %.067, i64 3
  %30 = uitofp i8 %22 to double
  %31 = fdiv double %30, %19
  %32 = fsub double 1.000000e+00, %31
  %33 = uitofp i8 %24 to double
  %34 = fdiv double %33, %19
  %35 = fsub double 1.000000e+00, %34
  %36 = uitofp i8 %26 to double
  %37 = fdiv double %36, %19
  %38 = fsub double 1.000000e+00, %37
  %39 = fcmp olt double %32, %35
  %40 = select i1 %39, double %32, double %35
  %41 = fcmp olt double %40, %38
  %..i = select i1 %41, double %40, double %38
  %42 = fcmp oeq double %..i, 1.000000e+00
  br i1 %42, label %rgb_to_cmyk.exit, label %43

43:                                               ; preds = %20
  %44 = fsub double %32, %..i
  %45 = fsub double 1.000000e+00, %..i
  %46 = fdiv double %44, %45
  %47 = fsub double %35, %..i
  %48 = fdiv double %47, %45
  %49 = fsub double %38, %..i
  %50 = fdiv double %49, %45
  br label %rgb_to_cmyk.exit

rgb_to_cmyk.exit:                                 ; preds = %20, %43
  %.042.i = phi double [ %48, %43 ], [ 0.000000e+00, %20 ]
  %.041.i = phi double [ %50, %43 ], [ 0.000000e+00, %20 ]
  %.0.i = phi double [ %46, %43 ], [ 0.000000e+00, %20 ]
  %51 = fneg double %.0.i
  %52 = tail call double @llvm.fmuladd.f64(double %51, double %19, double %19)
  %53 = fadd double %52, 5.000000e-01
  %54 = fptoui double %53 to i8
  store i8 %54, ptr %.067, align 1, !tbaa !30
  %55 = fneg double %.042.i
  %56 = tail call double @llvm.fmuladd.f64(double %55, double %19, double %19)
  %57 = fadd double %56, 5.000000e-01
  %58 = fptoui double %57 to i8
  store i8 %58, ptr %27, align 1, !tbaa !30
  %59 = fneg double %.041.i
  %60 = tail call double @llvm.fmuladd.f64(double %59, double %19, double %19)
  %61 = fadd double %60, 5.000000e-01
  %62 = fptoui double %61 to i8
  store i8 %62, ptr %28, align 1, !tbaa !30
  %63 = fneg double %..i
  %64 = tail call double @llvm.fmuladd.f64(double %63, double %19, double %19)
  %65 = fadd double %64, 5.000000e-01
  %66 = fptoui double %65 to i8
  store i8 %66, ptr %29, align 1, !tbaa !30
  %67 = getelementptr inbounds nuw i8, ptr %.067, i64 4
  %68 = add i32 %.05166, -1
  %.not55 = icmp eq i32 %68, 0
  br i1 %.not55, label %.loopexit, label %20, !llvm.loop !75

69:                                               ; preds = %2
  br i1 %.not5565, label %.loopexit, label %.lr.ph

.lr.ph:                                           ; preds = %69
  %70 = sitofp i32 %8 to double
  br label %71

71:                                               ; preds = %.lr.ph, %rgb_to_cmyk.exit60
  %.164 = phi ptr [ %11, %.lr.ph ], [ %124, %rgb_to_cmyk.exit60 ]
  %.15263 = phi i32 [ %17, %.lr.ph ], [ %125, %rgb_to_cmyk.exit60 ]
  %72 = tail call fastcc i32 @read_pbm_integer(ptr noundef %0, ptr noundef %4, i32 noundef %8)
  %73 = zext i32 %72 to i64
  %74 = getelementptr inbounds nuw i8, ptr %6, i64 %73
  %75 = load i8, ptr %74, align 1, !tbaa !30
  %76 = tail call fastcc i32 @read_pbm_integer(ptr noundef %0, ptr noundef %4, i32 noundef %8)
  %77 = zext i32 %76 to i64
  %78 = getelementptr inbounds nuw i8, ptr %6, i64 %77
  %79 = load i8, ptr %78, align 1, !tbaa !30
  %80 = tail call fastcc i32 @read_pbm_integer(ptr noundef %0, ptr noundef %4, i32 noundef %8)
  %81 = zext i32 %80 to i64
  %82 = getelementptr inbounds nuw i8, ptr %6, i64 %81
  %83 = load i8, ptr %82, align 1, !tbaa !30
  %84 = getelementptr inbounds nuw i8, ptr %.164, i64 1
  %85 = getelementptr inbounds nuw i8, ptr %.164, i64 2
  %86 = getelementptr inbounds nuw i8, ptr %.164, i64 3
  %87 = uitofp i8 %75 to double
  %88 = fdiv double %87, %70
  %89 = fsub double 1.000000e+00, %88
  %90 = uitofp i8 %79 to double
  %91 = fdiv double %90, %70
  %92 = fsub double 1.000000e+00, %91
  %93 = uitofp i8 %83 to double
  %94 = fdiv double %93, %70
  %95 = fsub double 1.000000e+00, %94
  %96 = fcmp olt double %89, %92
  %97 = select i1 %96, double %89, double %92
  %98 = fcmp olt double %97, %95
  %..i56 = select i1 %98, double %97, double %95
  %99 = fcmp oeq double %..i56, 1.000000e+00
  br i1 %99, label %rgb_to_cmyk.exit60, label %100

100:                                              ; preds = %71
  %101 = fsub double %89, %..i56
  %102 = fsub double 1.000000e+00, %..i56
  %103 = fdiv double %101, %102
  %104 = fsub double %92, %..i56
  %105 = fdiv double %104, %102
  %106 = fsub double %95, %..i56
  %107 = fdiv double %106, %102
  br label %rgb_to_cmyk.exit60

rgb_to_cmyk.exit60:                               ; preds = %71, %100
  %.042.i57 = phi double [ %105, %100 ], [ 0.000000e+00, %71 ]
  %.041.i58 = phi double [ %107, %100 ], [ 0.000000e+00, %71 ]
  %.0.i59 = phi double [ %103, %100 ], [ 0.000000e+00, %71 ]
  %108 = fneg double %.0.i59
  %109 = tail call double @llvm.fmuladd.f64(double %108, double %70, double %70)
  %110 = fadd double %109, 5.000000e-01
  %111 = fptoui double %110 to i8
  store i8 %111, ptr %.164, align 1, !tbaa !30
  %112 = fneg double %.042.i57
  %113 = tail call double @llvm.fmuladd.f64(double %112, double %70, double %70)
  %114 = fadd double %113, 5.000000e-01
  %115 = fptoui double %114 to i8
  store i8 %115, ptr %84, align 1, !tbaa !30
  %116 = fneg double %.041.i58
  %117 = tail call double @llvm.fmuladd.f64(double %116, double %70, double %70)
  %118 = fadd double %117, 5.000000e-01
  %119 = fptoui double %118 to i8
  store i8 %119, ptr %85, align 1, !tbaa !30
  %120 = fneg double %..i56
  %121 = tail call double @llvm.fmuladd.f64(double %120, double %70, double %70)
  %122 = fadd double %121, 5.000000e-01
  %123 = fptoui double %122 to i8
  store i8 %123, ptr %86, align 1, !tbaa !30
  %124 = getelementptr inbounds nuw i8, ptr %.164, i64 4
  %125 = add i32 %.15263, -1
  %.not = icmp eq i32 %125, 0
  br i1 %.not, label %.loopexit, label %71, !llvm.loop !76

.loopexit:                                        ; preds = %rgb_to_cmyk.exit60, %rgb_to_cmyk.exit, %69, %18
  ret i32 1
}